target datalayout = "e-m:e-p270:32:32-p271:32:32-p272:64:64-i64:64-i128:128-f80:128-n8:16:32:64-S128"
target triple = "x86_64-pc-linux-gnu"

%struct.Abc_Frame_t_ = type { ptr, ptr, ptr, ptr, ptr, ptr, ptr, ptr, ptr, ptr, i32, i32, i32, i32, i32, ptr, float, float, i32, i32, ptr, ptr, ptr, double, double, ptr, ptr, ptr, ptr, ptr, ptr, ptr, ptr, ptr, ptr, ptr, ptr, float, ptr, i32, ptr, ptr, ptr, ptr, ptr, i32, i32, i32, i32, i32, i32, ptr, ptr, ptr, ptr, ptr, ptr, i32, i32, ptr, ptr, ptr, ptr, ptr, ptr, ptr, ptr, ptr, ptr, ptr, ptr, ptr, ptr, ptr, ptr, ptr, ptr, ptr, ptr, ptr, ptr, ptr, ptr, ptr, ptr, ptr, ptr, ptr, ptr }
%struct.Abc_Ntk_t_ = type { i32, i32, ptr, ptr, ptr, ptr, ptr, ptr, ptr, ptr, ptr, ptr, ptr, [11 x i32], i32, i32, i32, i32, ptr, i32, ptr, ptr, i32, i32, i32, double, i32, %struct.Vec_Int_t_, ptr, ptr, ptr, ptr, ptr, float, i32, ptr, ptr, ptr, ptr, ptr, ptr, ptr, ptr, ptr, ptr, ptr, ptr, ptr, ptr, ptr, ptr, ptr, ptr, ptr, ptr, ptr, ptr }
%struct.Vec_Int_t_ = type { i32, i32, ptr }

@.str.39 = private unnamed_addr constant [4 x i8] c"yes\00", align 1
@.str.40 = private unnamed_addr constant [3 x i8] c"no\00", align 1
@.str.74 = private unnamed_addr constant [64 x i8] c"\09-v       : toggle printing verbose information [default = %s]\0A\00", align 1
@.str.86 = private unnamed_addr constant [37 x i8] c"\09-h       : print the command usage\0A\00", align 1
@.str.102 = private unnamed_addr constant [3 x i8] c"vh\00", align 1
@.str.103 = private unnamed_addr constant [16 x i8] c"Empty network.\0A\00", align 1
@.str.104 = private unnamed_addr constant [54 x i8] c"This command can only be applied to a logic network.\0A\00", align 1
@.str.105 = private unnamed_addr constant [25 x i8] c"The command has failed.\0A\00", align 1
@.str.106 = private unnamed_addr constant [19 x i8] c"usage: topo [-vh]\0A\00", align 1
@.str.107 = private unnamed_addr constant [59 x i8] c"\09           rearranges nodes to be in a topological order\0A\00", align 1

; Function Attrs: inlinehint nounwind uwtable
define internal i32 @Abc_NtkIsLogic(ptr noundef %0) #1 {
  %2 = alloca ptr, align 8
  store ptr %0, ptr %2, align 8, !tbaa !69
  %3 = load ptr, ptr %2, align 8, !tbaa !69
  %4 = getelementptr inbounds nuw %struct.Abc_Ntk_t_, ptr %3, i32 0, i32 0
  %5 = load i32, ptr %4, align 8, !tbaa !189
  %6 = icmp eq i32 %5, 2
  %7 = zext i1 %6 to i32
  ret i32 %7
}

; Function Attrs: nounwind uwtable
define internal i32 @Scl_CommandTopo(ptr noundef %0, i32 noundef %1, ptr noundef %2) #0 {
  %4 = alloca i32, align 4
  %5 = alloca ptr, align 8
  %6 = alloca i32, align 4
  %7 = alloca ptr, align 8
  %8 = alloca ptr, align 8
  %9 = alloca ptr, align 8
  %10 = alloca i32, align 4
  %11 = alloca i32, align 4
  %12 = alloca i32, align 4
  store ptr %0, ptr %5, align 8, !tbaa !3
  store i32 %1, ptr %6, align 4, !tbaa !29
  store ptr %2, ptr %7, align 8, !tbaa !50
  call void @llvm.lifetime.start.p0(i64 8, ptr %8) #12
  %13 = load ptr, ptr %5, align 8, !tbaa !3
  %14 = call ptr @Abc_FrameReadNtk(ptr noundef %13)
  store ptr %14, ptr %8, align 8, !tbaa !69
  call void @llvm.lifetime.start.p0(i64 8, ptr %9) #12
  call void @llvm.lifetime.start.p0(i64 4, ptr %10) #12
  call void @llvm.lifetime.start.p0(i64 4, ptr %11) #12
  store i32 0, ptr %11, align 4, !tbaa !29
  call void (...) @Extra_UtilGetoptReset()
  br label %15

15:                                               ; preds = %27, %3
  %16 = load i32, ptr %6, align 4, !tbaa !29
  %17 = load ptr, ptr %7, align 8, !tbaa !50
  %18 = call i32 @Extra_UtilGetopt(i32 noundef %16, ptr noundef %17, ptr noundef @.str.102)
  store i32 %18, ptr %10, align 4, !tbaa !29
  %19 = icmp ne i32 %18, -1
  br i1 %19, label %20, label %28

20:                                               ; preds = %15
  %21 = load i32, ptr %10, align 4, !tbaa !29
  switch i32 %21, label %26 [
    i32 118, label %22
    i32 104, label %25
  ]

22:                                               ; preds = %20
  %23 = load i32, ptr %11, align 4, !tbaa !29
  %24 = xor i32 %23, 1
  store i32 %24, ptr %11, align 4, !tbaa !29
  br label %27

25:                                               ; preds = %20
  br label %46

26:                                               ; preds = %20
  br label %46

27:                                               ; preds = %22
  br label %15, !llvm.loop !70

28:                                               ; preds = %15
  %29 = load ptr, ptr %8, align 8, !tbaa !69
  %30 = icmp eq ptr %29, null
  br i1 %30, label %31, label %32

31:                                               ; preds = %28
  call void (i32, ptr, ...) @Abc_Print(i32 noundef -1, ptr noundef @.str.103)
  store i32 1, ptr %4, align 4
  store i32 1, ptr %12, align 4
  br label %66

32:                                               ; preds = %28
  %33 = load ptr, ptr %8, align 8, !tbaa !69
  %34 = call i32 @Abc_NtkIsLogic(ptr noundef %33)
  %35 = icmp ne i32 %34, 0
  br i1 %35, label %37, label %36

36:                                               ; preds = %32
  call void (i32, ptr, ...) @Abc_Print(i32 noundef -1, ptr noundef @.str.104)
  store i32 1, ptr %4, align 4
  store i32 1, ptr %12, align 4
  br label %66

37:                                               ; preds = %32
  %38 = load ptr, ptr %8, align 8, !tbaa !69
  %39 = call ptr @Abc_NtkDupDfs(ptr noundef %38)
  store ptr %39, ptr %9, align 8, !tbaa !69
  %40 = load ptr, ptr %9, align 8, !tbaa !69
  %41 = icmp eq ptr %40, null
  br i1 %41, label %42, label %43

42:                                               ; preds = %37
  call void (i32, ptr, ...) @Abc_Print(i32 noundef -1, ptr noundef @.str.105)
  store i32 1, ptr %4, align 4
  store i32 1, ptr %12, align 4
  br label %66

43:                                               ; preds = %37
  %44 = load ptr, ptr %5, align 8, !tbaa !3
  %45 = load ptr, ptr %9, align 8, !tbaa !69
  call void @Abc_FrameReplaceCurrentNetwork(ptr noundef %44, ptr noundef %45)
  store i32 0, ptr %4, align 4
  store i32 1, ptr %12, align 4
  br label %66

46:                                               ; preds = %26, %25
  %47 = load ptr, ptr %5, align 8, !tbaa !3
  %48 = getelementptr inbounds nuw %struct.Abc_Frame_t_, ptr %47, i32 0, i32 21
  %49 = load ptr, ptr %48, align 8, !tbaa !59
  %50 = call i32 (ptr, ptr, ...) @fprintf(ptr noundef %49, ptr noundef @.str.106) #12
  %51 = load ptr, ptr %5, align 8, !tbaa !3
  %52 = getelementptr inbounds nuw %struct.Abc_Frame_t_, ptr %51, i32 0, i32 21
  %53 = load ptr, ptr %52, align 8, !tbaa !59
  %54 = call i32 (ptr, ptr, ...) @fprintf(ptr noundef %53, ptr noundef @.str.107) #12
  %55 = load ptr, ptr %5, align 8, !tbaa !3
  %56 = getelementptr inbounds nuw %struct.Abc_Frame_t_, ptr %55, i32 0, i32 21
  %57 = load ptr, ptr %56, align 8, !tbaa !59
  %58 = load i32, ptr %11, align 4, !tbaa !29
  %59 = icmp ne i32 %58, 0
  %60 = select i1 %59, ptr @.str.39, ptr @.str.40
  %61 = call i32 (ptr, ptr, ...) @fprintf(ptr noundef %57, ptr noundef @.str.74, ptr noundef %60) #12
  %62 = load ptr, ptr %5, align 8, !tbaa !3
  %63 = getelementptr inbounds nuw %struct.Abc_Frame_t_, ptr %62, i32 0, i32 21
  %64 = load ptr, ptr %63, align 8, !tbaa !59
  %65 = call i32 (ptr, ptr, ...) @fprintf(ptr noundef %64, ptr noundef @.str.86) #12
  store i32 1, ptr %4, align 4
  store i32 1, ptr %12, align 4
  br label %66

66:                                               ; preds = %46, %43, %42, %36, %31
  call void @llvm.lifetime.end.p0(i64 4, ptr %11) #12
  call void @llvm.lifetime.end.p0(i64 4, ptr %10) #12
  call void @llvm.lifetime.end.p0(i64 8, ptr %9) #12
  call void @llvm.lifetime.end.p0(i64 8, ptr %8) #12
  %67 = load i32, ptr %4, align 4
  ret i32 %67
}