; Function Attrs: nounwind uwtable
define internal range(i32 0, 2) i32 @Scl_CommandTopo(ptr noundef %0, i32 noundef %1, ptr noundef %2) #0 {
  %4 = tail call ptr @Abc_FrameReadNtk(ptr noundef %0) #12
  tail call void (...) @Extra_UtilGetoptReset() #12
  br label %5

5:                                                ; preds = %7, %3
  %.0 = phi i32 [ 0, %3 ], [ %8, %7 ]
  %6 = tail call i32 @Extra_UtilGetopt(i32 noundef %1, ptr noundef %2, ptr noundef nonnull @.str.102) #12
  switch i32 %6, label %19 [
    i32 -1, label %9
    i32 118, label %7
  ]

7:                                                ; preds = %5
  %8 = xor i32 %.0, 1
  br label %5, !llvm.loop !100

9:                                                ; preds = %5
  %10 = icmp eq ptr %4, null
  br i1 %10, label %11, label %12

11:                                               ; preds = %9
  tail call void (i32, ptr, ...) @Abc_Print(i32 noundef -1, ptr noundef nonnull @.str.103)
  br label %30

12:                                               ; preds = %9
  %.val = load i32, ptr %4, align 8, !tbaa !101
  %.not = icmp eq i32 %.val, 2
  br i1 %.not, label %14, label %13

13:                                               ; preds = %12
  tail call void (i32, ptr, ...) @Abc_Print(i32 noundef -1, ptr noundef nonnull @.str.104)
  br label %30

14:                                               ; preds = %12
  %15 = tail call ptr @Abc_NtkDupDfs(ptr noundef nonnull %4) #12
  %16 = icmp eq ptr %15, null
  br i1 %16, label %17, label %18

17:                                               ; preds = %14
  tail call void (i32, ptr, ...) @Abc_Print(i32 noundef -1, ptr noundef nonnull @.str.105)
  br label %30

18:                                               ; preds = %14
  tail call void @Abc_FrameReplaceCurrentNetwork(ptr noundef %0, ptr noundef nonnull %15) #12
  br label %30

19:                                               ; preds = %5
  %20 = getelementptr inbounds nuw i8, ptr %0, i64 136
  %21 = load ptr, ptr %20, align 8, !tbaa !84
  %22 = tail call i64 @fwrite(ptr nonnull @.str.106, i64 18, i64 1, ptr %21)
  %23 = load ptr, ptr %20, align 8, !tbaa !84
  %24 = tail call i64 @fwrite(ptr nonnull @.str.107, i64 58, i64 1, ptr %23)
  %25 = load ptr, ptr %20, align 8, !tbaa !84
  %.not21 = icmp eq i32 %.0, 0
  %26 = select i1 %.not21, ptr @.str.40, ptr @.str.39
  %27 = tail call i32 (ptr, ptr, ...) @fprintf(ptr noundef %25, ptr noundef nonnull @.str.74, ptr noundef nonnull %26) #12
  %28 = load ptr, ptr %20, align 8, !tbaa !84
  %29 = tail call i64 @fwrite(ptr nonnull @.str.86, i64 36, i64 1, ptr %28)
  br label %30

30:                                               ; preds = %19, %18, %17, %13, %11
  %.016 = phi i32 [ 1, %19 ], [ 1, %11 ], [ 1, %17 ], [ 0, %18 ], [ 1, %13 ]
  ret i32 %.016
}